(dp0
S'scale'
p1
(dp2
S'vd'
p3
cnumpy.core.multiarray
_reconstruct
p4
(cnumpy
ndarray
p5
(I0
tp6
S'b'
p7
tp8
Rp9
(I1
(I1
tp10
cnumpy
dtype
p11
(S'f4'
p12
I0
I1
tp13
Rp14
(I3
S'<'
p15
NNNI-1
I-1
I0
tp16
bI00
S'\x00\x00\x80?'
p17
tp18
bsS'grads'
p19
g4
(g5
(I0
tp20
g7
tp21
Rp22
(I1
(I4
tp23
g14
I00
S'3\xfct;\xd1\xcd\xb19x\xfct;C\x99n>'
p24
tp25
bsS'vg'
p26
g4
(g5
(I0
tp27
g7
tp28
Rp29
(I1
(I2
tp30
g14
I00
S'\x00\x00\x80?\x00\x00\x80?'
p31
tp32
bssS'vg_shift'
p33
g4
(g5
(I0
tp34
g7
tp35
Rp36
(I1
(I2
tp37
g14
I00
S'\x00\x00\x00\x00\x00\x00\x00\x00'
p38
tp39
bs.