(dp0
S'max_loss_scale'
p1
F1.0
sS'scale'
p2
(dp3
S'q'
p4
cnumpy.core.multiarray
scalar
p5
(cnumpy
dtype
p6
(S'f8'
p7
I0
I1
tp8
Rp9
(I3
S'<'
p10
NNNI-1
I-1
I0
tp11
bS'4\xf6&1\xa9\xa9Y>'
p12
tp13
Rp14
sS'vd'
p15
g5
(g9
S'\x00\x00\x00\x00\x00\x00\x18@'
p16
tp17
Rp18
sS'vg'
p19
g5
(g9
S'\x00\x00\x00\x00\x00\x00\xfc?'
p20
tp21
Rp22
ssS'vg_shift'
p23
g5
(g9
S'\x00\x00\x00\x00\x00\x00\xe8?'
p24
tp25
Rp26
s.