(dp0
S'scale'
p1
(dp2
S'vd'
p3
cnumpy.core.multiarray
scalar
p4
(cnumpy
dtype
p5
(S'f8'
p6
I0
I1
tp7
Rp8
(I3
S'<'
p9
NNNI-1
I-1
I0
tp10
bS'\x00\x00\x00\xa0\x99\x99\xd9?'
p11
tp12
Rp13
sS'id'
p14
g4
(g8
S'UUU\xd5\x8d6$>'
p15
tp16
Rp17
sS'vg'
p18
g4
(g8
S'\x00\x00\x00\xa0\x99\x99\xc9?'
p19
tp20
Rp21
ssS'vg_shift'
p22
g4
(g8
S'\x00\x00\x00\xa0\x99\x99\xc9?'
p23
tp24
Rp25
s.